; Function Attrs: mustprogress uwtable
define hidden void @_ZN2qe6mbprojC2ER11ast_managerRK10params_ref(ptr noundef nonnull writeonly align 8 captures(none) dereferenceable(8) %0, ptr noundef nonnull align 8 dereferenceable(976) %1, ptr noundef nonnull align 8 dereferenceable(8) %2) unnamed_addr #4 align 2 personality ptr @__gxx_personality_v0 {
  %4 = getelementptr inbounds nuw i8, ptr %1, i64 712
  %5 = load i32, ptr %4, align 8, !tbaa !206
  store i32 0, ptr %4, align 8, !tbaa !206
  %6 = invoke noalias noundef ptr @_ZN6memory8allocateEm(i64 noundef 48)
          to label %7 unwind label %9

7:                                                ; preds = %3
  invoke void @_ZN2qe6mbproj4implC2ER11ast_managerRK10params_ref(ptr noundef nonnull align 8 dereferenceable(43) %6, ptr noundef nonnull align 8 dereferenceable(976) %1, ptr noundef nonnull align 8 dereferenceable(8) %2)
          to label %8 unwind label %9

8:                                                ; preds = %7
  store ptr %6, ptr %0, align 8, !tbaa !207
  store i32 %5, ptr %4, align 8, !tbaa !206
  ret void

9:                                                ; preds = %7, %3
  %10 = landingpad { ptr, i32 }
          cleanup
  store i32 %5, ptr %4, align 8, !tbaa !206
  resume { ptr, i32 } %10
}